target datalayout = "e-m:e-p270:32:32-p271:32:32-p272:64:64-i64:64-i128:128-f80:128-n8:16:32:64-S128"
target triple = "x86_64-pc-linux-gnu"

%"class.std::__cxx11::basic_string" = type { %"struct.std::__cxx11::basic_string<char>::_Alloc_hider", i64, %union.anon }
%"struct.std::__cxx11::basic_string<char>::_Alloc_hider" = type { ptr }
%union.anon = type { i64, [8 x i8] }
%"class.absl::debian2::AlphaNum" = type { %"class.absl::debian2::string_view", [32 x i8] }
%"class.absl::debian2::string_view" = type { ptr, i64 }
%"class.std::initializer_list.6" = type { ptr, i64 }

; Function Attrs: mustprogress nounwind uwtable
define linkonce_odr dso_local { ptr, i64 } @_ZNK4absl7debian28AlphaNum5PieceEv(ptr noundef nonnull align 8 dereferenceable(48) %0) #1 comdat align 2 {
  %2 = alloca %"class.absl::debian2::string_view", align 8
  %3 = alloca ptr, align 8
  store ptr %0, ptr %3, align 8, !tbaa !11
  %4 = load ptr, ptr %3, align 8
  %5 = getelementptr inbounds nuw %"class.absl::debian2::AlphaNum", ptr %4, i32 0, i32 0
  call void @llvm.memcpy.p0.p0.i64(ptr align 8 %2, ptr align 8 %5, i64 16, i1 false), !tbaa.struct !24
  %6 = load { ptr, i64 }, ptr %2, align 8
  ret { ptr, i64 } %6
}

; Function Attrs: inlinehint mustprogress uwtable
define linkonce_odr dso_local void @_ZN4absl7debian26StrCatIJN4i18n12phonenumbers12StringHolderES4_S4_S4_S4_S4_S4_S4_EEENSt7__cxx1112basic_stringIcSt11char_traitsIcESaIcEEERKNS0_8AlphaNumESD_SD_SD_SD_DpRKT_(ptr dead_on_unwind noalias writable sret(%"class.std::__cxx11::basic_string") align 8 %0, ptr noundef nonnull align 8 dereferenceable(48) %1, ptr noundef nonnull align 8 dereferenceable(48) %2, ptr noundef nonnull align 8 dereferenceable(48) %3, ptr noundef nonnull align 8 dereferenceable(48) %4, ptr noundef nonnull align 8 dereferenceable(48) %5, ptr noundef nonnull align 8 dereferenceable(48) %6, ptr noundef nonnull align 8 dereferenceable(48) %7, ptr noundef nonnull align 8 dereferenceable(48) %8, ptr noundef nonnull align 8 dereferenceable(48) %9, ptr noundef nonnull align 8 dereferenceable(48) %10, ptr noundef nonnull align 8 dereferenceable(48) %11, ptr noundef nonnull align 8 dereferenceable(48) %12, ptr noundef nonnull align 8 dereferenceable(48) %13) #4 comdat {
  %15 = alloca ptr, align 8
  %16 = alloca ptr, align 8
  %17 = alloca ptr, align 8
  %18 = alloca ptr, align 8
  %19 = alloca ptr, align 8
  %20 = alloca ptr, align 8
  %21 = alloca ptr, align 8
  %22 = alloca ptr, align 8
  %23 = alloca ptr, align 8
  %24 = alloca ptr, align 8
  %25 = alloca ptr, align 8
  %26 = alloca ptr, align 8
  %27 = alloca ptr, align 8
  %28 = alloca ptr, align 8
  %29 = alloca %"class.std::initializer_list.6", align 8
  %30 = alloca [13 x %"class.absl::debian2::string_view"], align 8
  store ptr %0, ptr %15, align 8
  store ptr %1, ptr %16, align 8, !tbaa !11
  store ptr %2, ptr %17, align 8, !tbaa !11
  store ptr %3, ptr %18, align 8, !tbaa !11
  store ptr %4, ptr %19, align 8, !tbaa !11
  store ptr %5, ptr %20, align 8, !tbaa !11
  store ptr %6, ptr %21, align 8, !tbaa !70
  store ptr %7, ptr %22, align 8, !tbaa !70
  store ptr %8, ptr %23, align 8, !tbaa !70
  store ptr %9, ptr %24, align 8, !tbaa !70
  store ptr %10, ptr %25, align 8, !tbaa !70
  store ptr %11, ptr %26, align 8, !tbaa !70
  store ptr %12, ptr %27, align 8, !tbaa !70
  store ptr %13, ptr %28, align 8, !tbaa !70
  call void @llvm.lifetime.start.p0(i64 208, ptr %30) #16
  %31 = load ptr, ptr %16, align 8, !tbaa !11
  %32 = call { ptr, i64 } @_ZNK4absl7debian28AlphaNum5PieceEv(ptr noundef nonnull align 8 dereferenceable(48) %31)
  %33 = getelementptr inbounds nuw { ptr, i64 }, ptr %30, i32 0, i32 0
  %34 = extractvalue { ptr, i64 } %32, 0
  store ptr %34, ptr %33, align 8
  %35 = getelementptr inbounds nuw { ptr, i64 }, ptr %30, i32 0, i32 1
  %36 = extractvalue { ptr, i64 } %32, 1
  store i64 %36, ptr %35, align 8
  %37 = getelementptr inbounds %"class.absl::debian2::string_view", ptr %30, i64 1
  %38 = load ptr, ptr %17, align 8, !tbaa !11
  %39 = call { ptr, i64 } @_ZNK4absl7debian28AlphaNum5PieceEv(ptr noundef nonnull align 8 dereferenceable(48) %38)
  %40 = getelementptr inbounds nuw { ptr, i64 }, ptr %37, i32 0, i32 0
  %41 = extractvalue { ptr, i64 } %39, 0
  store ptr %41, ptr %40, align 8
  %42 = getelementptr inbounds nuw { ptr, i64 }, ptr %37, i32 0, i32 1
  %43 = extractvalue { ptr, i64 } %39, 1
  store i64 %43, ptr %42, align 8
  %44 = getelementptr inbounds %"class.absl::debian2::string_view", ptr %30, i64 2
  %45 = load ptr, ptr %18, align 8, !tbaa !11
  %46 = call { ptr, i64 } @_ZNK4absl7debian28AlphaNum5PieceEv(ptr noundef nonnull align 8 dereferenceable(48) %45)
  %47 = getelementptr inbounds nuw { ptr, i64 }, ptr %44, i32 0, i32 0
  %48 = extractvalue { ptr, i64 } %46, 0
  store ptr %48, ptr %47, align 8
  %49 = getelementptr inbounds nuw { ptr, i64 }, ptr %44, i32 0, i32 1
  %50 = extractvalue { ptr, i64 } %46, 1
  store i64 %50, ptr %49, align 8
  %51 = getelementptr inbounds %"class.absl::debian2::string_view", ptr %30, i64 3
  %52 = load ptr, ptr %19, align 8, !tbaa !11
  %53 = call { ptr, i64 } @_ZNK4absl7debian28AlphaNum5PieceEv(ptr noundef nonnull align 8 dereferenceable(48) %52)
  %54 = getelementptr inbounds nuw { ptr, i64 }, ptr %51, i32 0, i32 0
  %55 = extractvalue { ptr, i64 } %53, 0
  store ptr %55, ptr %54, align 8
  %56 = getelementptr inbounds nuw { ptr, i64 }, ptr %51, i32 0, i32 1
  %57 = extractvalue { ptr, i64 } %53, 1
  store i64 %57, ptr %56, align 8
  %58 = getelementptr inbounds %"class.absl::debian2::string_view", ptr %30, i64 4
  %59 = load ptr, ptr %20, align 8, !tbaa !11
  %60 = call { ptr, i64 } @_ZNK4absl7debian28AlphaNum5PieceEv(ptr noundef nonnull align 8 dereferenceable(48) %59)
  %61 = getelementptr inbounds nuw { ptr, i64 }, ptr %58, i32 0, i32 0
  %62 = extractvalue { ptr, i64 } %60, 0
  store ptr %62, ptr %61, align 8
  %63 = getelementptr inbounds nuw { ptr, i64 }, ptr %58, i32 0, i32 1
  %64 = extractvalue { ptr, i64 } %60, 1
  store i64 %64, ptr %63, align 8
  %65 = getelementptr inbounds %"class.absl::debian2::string_view", ptr %30, i64 5
  %66 = load ptr, ptr %21, align 8, !tbaa !70
  %67 = call { ptr, i64 } @_ZNK4absl7debian28AlphaNum5PieceEv(ptr noundef nonnull align 8 dereferenceable(48) %66)
  %68 = getelementptr inbounds nuw { ptr, i64 }, ptr %65, i32 0, i32 0
  %69 = extractvalue { ptr, i64 } %67, 0
  store ptr %69, ptr %68, align 8
  %70 = getelementptr inbounds nuw { ptr, i64 }, ptr %65, i32 0, i32 1
  %71 = extractvalue { ptr, i64 } %67, 1
  store i64 %71, ptr %70, align 8
  %72 = getelementptr inbounds %"class.absl::debian2::string_view", ptr %30, i64 6
  %73 = load ptr, ptr %22, align 8, !tbaa !70
  %74 = call { ptr, i64 } @_ZNK4absl7debian28AlphaNum5PieceEv(ptr noundef nonnull align 8 dereferenceable(48) %73)
  %75 = getelementptr inbounds nuw { ptr, i64 }, ptr %72, i32 0, i32 0
  %76 = extractvalue { ptr, i64 } %74, 0
  store ptr %76, ptr %75, align 8
  %77 = getelementptr inbounds nuw { ptr, i64 }, ptr %72, i32 0, i32 1
  %78 = extractvalue { ptr, i64 } %74, 1
  store i64 %78, ptr %77, align 8
  %79 = getelementptr inbounds %"class.absl::debian2::string_view", ptr %30, i64 7
  %80 = load ptr, ptr %23, align 8, !tbaa !70
  %81 = call { ptr, i64 } @_ZNK4absl7debian28AlphaNum5PieceEv(ptr noundef nonnull align 8 dereferenceable(48) %80)
  %82 = getelementptr inbounds nuw { ptr, i64 }, ptr %79, i32 0, i32 0
  %83 = extractvalue { ptr, i64 } %81, 0
  store ptr %83, ptr %82, align 8
  %84 = getelementptr inbounds nuw { ptr, i64 }, ptr %79, i32 0, i32 1
  %85 = extractvalue { ptr, i64 } %81, 1
  store i64 %85, ptr %84, align 8
  %86 = getelementptr inbounds %"class.absl::debian2::string_view", ptr %30, i64 8
  %87 = load ptr, ptr %24, align 8, !tbaa !70
  %88 = call { ptr, i64 } @_ZNK4absl7debian28AlphaNum5PieceEv(ptr noundef nonnull align 8 dereferenceable(48) %87)
  %89 = getelementptr inbounds nuw { ptr, i64 }, ptr %86, i32 0, i32 0
  %90 = extractvalue { ptr, i64 } %88, 0
  store ptr %90, ptr %89, align 8
  %91 = getelementptr inbounds nuw { ptr, i64 }, ptr %86, i32 0, i32 1
  %92 = extractvalue { ptr, i64 } %88, 1
  store i64 %92, ptr %91, align 8
  %93 = getelementptr inbounds %"class.absl::debian2::string_view", ptr %30, i64 9
  %94 = load ptr, ptr %25, align 8, !tbaa !70
  %95 = call { ptr, i64 } @_ZNK4absl7debian28AlphaNum5PieceEv(ptr noundef nonnull align 8 dereferenceable(48) %94)
  %96 = getelementptr inbounds nuw { ptr, i64 }, ptr %93, i32 0, i32 0
  %97 = extractvalue { ptr, i64 } %95, 0
  store ptr %97, ptr %96, align 8
  %98 = getelementptr inbounds nuw { ptr, i64 }, ptr %93, i32 0, i32 1
  %99 = extractvalue { ptr, i64 } %95, 1
  store i64 %99, ptr %98, align 8
  %100 = getelementptr inbounds %"class.absl::debian2::string_view", ptr %30, i64 10
  %101 = load ptr, ptr %26, align 8, !tbaa !70
  %102 = call { ptr, i64 } @_ZNK4absl7debian28AlphaNum5PieceEv(ptr noundef nonnull align 8 dereferenceable(48) %101)
  %103 = getelementptr inbounds nuw { ptr, i64 }, ptr %100, i32 0, i32 0
  %104 = extractvalue { ptr, i64 } %102, 0
  store ptr %104, ptr %103, align 8
  %105 = getelementptr inbounds nuw { ptr, i64 }, ptr %100, i32 0, i32 1
  %106 = extractvalue { ptr, i64 } %102, 1
  store i64 %106, ptr %105, align 8
  %107 = getelementptr inbounds %"class.absl::debian2::string_view", ptr %30, i64 11
  %108 = load ptr, ptr %27, align 8, !tbaa !70
  %109 = call { ptr, i64 } @_ZNK4absl7debian28AlphaNum5PieceEv(ptr noundef nonnull align 8 dereferenceable(48) %108)
  %110 = getelementptr inbounds nuw { ptr, i64 }, ptr %107, i32 0, i32 0
  %111 = extractvalue { ptr, i64 } %109, 0
  store ptr %111, ptr %110, align 8
  %112 = getelementptr inbounds nuw { ptr, i64 }, ptr %107, i32 0, i32 1
  %113 = extractvalue { ptr, i64 } %109, 1
  store i64 %113, ptr %112, align 8
  %114 = getelementptr inbounds %"class.absl::debian2::string_view", ptr %30, i64 12
  %115 = load ptr, ptr %28, align 8, !tbaa !70
  %116 = call { ptr, i64 } @_ZNK4absl7debian28AlphaNum5PieceEv(ptr noundef nonnull align 8 dereferenceable(48) %115)
  %117 = getelementptr inbounds nuw { ptr, i64 }, ptr %114, i32 0, i32 0
  %118 = extractvalue { ptr, i64 } %116, 0
  store ptr %118, ptr %117, align 8
  %119 = getelementptr inbounds nuw { ptr, i64 }, ptr %114, i32 0, i32 1
  %120 = extractvalue { ptr, i64 } %116, 1
  store i64 %120, ptr %119, align 8
  %121 = getelementptr inbounds nuw %"class.std::initializer_list.6", ptr %29, i32 0, i32 0
  store ptr %30, ptr %121, align 8, !tbaa !74
  %122 = getelementptr inbounds nuw %"class.std::initializer_list.6", ptr %29, i32 0, i32 1
  store i64 13, ptr %122, align 8, !tbaa !76
  %123 = getelementptr inbounds nuw { ptr, i64 }, ptr %29, i32 0, i32 0
  %124 = load ptr, ptr %123, align 8
  %125 = getelementptr inbounds nuw { ptr, i64 }, ptr %29, i32 0, i32 1
  %126 = load i64, ptr %125, align 8
  call void @_ZN4absl7debian216strings_internal9CatPiecesB5cxx11ESt16initializer_listINS0_11string_viewEE(ptr dead_on_unwind writable sret(%"class.std::__cxx11::basic_string") align 8 %0, ptr %124, i64 %126)
  call void @llvm.lifetime.end.p0(i64 208, ptr %30) #16
  ret void
}

; Function Attrs: mustprogress uwtable
define dso_local void @_ZN4i18n12phonenumbers6StrCatB5cxx11ERKNS0_12StringHolderES3_S3_S3_S3_S3_S3_S3_S3_S3_S3_S3_S3_(ptr dead_on_unwind noalias writable sret(%"class.std::__cxx11::basic_string") align 8 %0, ptr noundef nonnull align 8 dereferenceable(48) %1, ptr noundef nonnull align 8 dereferenceable(48) %2, ptr noundef nonnull align 8 dereferenceable(48) %3, ptr noundef nonnull align 8 dereferenceable(48) %4, ptr noundef nonnull align 8 dereferenceable(48) %5, ptr noundef nonnull align 8 dereferenceable(48) %6, ptr noundef nonnull align 8 dereferenceable(48) %7, ptr noundef nonnull align 8 dereferenceable(48) %8, ptr noundef nonnull align 8 dereferenceable(48) %9, ptr noundef nonnull align 8 dereferenceable(48) %10, ptr noundef nonnull align 8 dereferenceable(48) %11, ptr noundef nonnull align 8 dereferenceable(48) %12, ptr noundef nonnull align 8 dereferenceable(48) %13) #0 {
  %15 = alloca ptr, align 8
  %16 = alloca ptr, align 8
  %17 = alloca ptr, align 8
  %18 = alloca ptr, align 8
  %19 = alloca ptr, align 8
  %20 = alloca ptr, align 8
  %21 = alloca ptr, align 8
  %22 = alloca ptr, align 8
  %23 = alloca ptr, align 8
  %24 = alloca ptr, align 8
  %25 = alloca ptr, align 8
  %26 = alloca ptr, align 8
  %27 = alloca ptr, align 8
  %28 = alloca ptr, align 8
  store ptr %0, ptr %15, align 8
  store ptr %1, ptr %16, align 8, !tbaa !70
  store ptr %2, ptr %17, align 8, !tbaa !70
  store ptr %3, ptr %18, align 8, !tbaa !70
  store ptr %4, ptr %19, align 8, !tbaa !70
  store ptr %5, ptr %20, align 8, !tbaa !70
  store ptr %6, ptr %21, align 8, !tbaa !70
  store ptr %7, ptr %22, align 8, !tbaa !70
  store ptr %8, ptr %23, align 8, !tbaa !70
  store ptr %9, ptr %24, align 8, !tbaa !70
  store ptr %10, ptr %25, align 8, !tbaa !70
  store ptr %11, ptr %26, align 8, !tbaa !70
  store ptr %12, ptr %27, align 8, !tbaa !70
  store ptr %13, ptr %28, align 8, !tbaa !70
  %29 = load ptr, ptr %16, align 8, !tbaa !70
  %30 = load ptr, ptr %17, align 8, !tbaa !70
  %31 = load ptr, ptr %18, align 8, !tbaa !70
  %32 = load ptr, ptr %19, align 8, !tbaa !70
  %33 = load ptr, ptr %20, align 8, !tbaa !70
  %34 = load ptr, ptr %21, align 8, !tbaa !70
  %35 = load ptr, ptr %22, align 8, !tbaa !70
  %36 = load ptr, ptr %23, align 8, !tbaa !70
  %37 = load ptr, ptr %24, align 8, !tbaa !70
  %38 = load ptr, ptr %25, align 8, !tbaa !70
  %39 = load ptr, ptr %26, align 8, !tbaa !70
  %40 = load ptr, ptr %27, align 8, !tbaa !70
  %41 = load ptr, ptr %28, align 8, !tbaa !70
  call void @_ZN4absl7debian26StrCatIJN4i18n12phonenumbers12StringHolderES4_S4_S4_S4_S4_S4_S4_EEENSt7__cxx1112basic_stringIcSt11char_traitsIcESaIcEEERKNS0_8AlphaNumESD_SD_SD_SD_DpRKT_(ptr dead_on_unwind writable sret(%"class.std::__cxx11::basic_string") align 8 %0, ptr noundef nonnull align 8 dereferenceable(48) %29, ptr noundef nonnull align 8 dereferenceable(48) %30, ptr noundef nonnull align 8 dereferenceable(48) %31, ptr noundef nonnull align 8 dereferenceable(48) %32, ptr noundef nonnull align 8 dereferenceable(48) %33, ptr noundef nonnull align 8 dereferenceable(48) %34, ptr noundef nonnull align 8 dereferenceable(48) %35, ptr noundef nonnull align 8 dereferenceable(48) %36, ptr noundef nonnull align 8 dereferenceable(48) %37, ptr noundef nonnull align 8 dereferenceable(48) %38, ptr noundef nonnull align 8 dereferenceable(48) %39, ptr noundef nonnull align 8 dereferenceable(48) %40, ptr noundef nonnull align 8 dereferenceable(48) %41)
  ret void
}