; Function Attrs: mustprogress uwtable
define dso_local void @_ZN4i18n12phonenumbers6StrCatB5cxx11ERKNS0_12StringHolderES3_S3_S3_S3_S3_S3_S3_S3_S3_S3_S3_S3_(ptr dead_on_unwind noalias writable sret(%"class.std::__cxx11::basic_string") align 8 %0, ptr noundef nonnull readonly align 8 captures(none) dereferenceable(48) %1, ptr noundef nonnull readonly align 8 captures(none) dereferenceable(48) %2, ptr noundef nonnull readonly align 8 captures(none) dereferenceable(48) %3, ptr noundef nonnull readonly align 8 captures(none) dereferenceable(48) %4, ptr noundef nonnull readonly align 8 captures(none) dereferenceable(48) %5, ptr noundef nonnull readonly align 8 captures(none) dereferenceable(48) %6, ptr noundef nonnull readonly align 8 captures(none) dereferenceable(48) %7, ptr noundef nonnull readonly align 8 captures(none) dereferenceable(48) %8, ptr noundef nonnull readonly align 8 captures(none) dereferenceable(48) %9, ptr noundef nonnull readonly align 8 captures(none) dereferenceable(48) %10, ptr noundef nonnull readonly align 8 captures(none) dereferenceable(48) %11, ptr noundef nonnull readonly align 8 captures(none) dereferenceable(48) %12, ptr noundef nonnull readonly align 8 captures(none) dereferenceable(48) %13) local_unnamed_addr #0 {
  %15 = alloca [13 x %"class.absl::debian2::string_view"], align 8
  call void @llvm.lifetime.start.p0(i64 208, ptr nonnull %15) #19, !noalias !85
  %.sroa.0.0.copyload.i.i = load ptr, ptr %1, align 8, !tbaa !31, !noalias !85
  %.sroa.2.0..sroa_idx.i.i = getelementptr inbounds nuw i8, ptr %1, i64 8
  %.sroa.2.0.copyload.i.i = load i64, ptr %.sroa.2.0..sroa_idx.i.i, align 8, !tbaa !22, !noalias !85
  store ptr %.sroa.0.0.copyload.i.i, ptr %15, align 8, !noalias !85
  %16 = getelementptr inbounds nuw i8, ptr %15, i64 8
  store i64 %.sroa.2.0.copyload.i.i, ptr %16, align 8, !noalias !85
  %17 = getelementptr inbounds nuw i8, ptr %15, i64 16
  %.sroa.0.0.copyload.i13.i = load ptr, ptr %2, align 8, !tbaa !31, !noalias !85
  %.sroa.2.0..sroa_idx.i14.i = getelementptr inbounds nuw i8, ptr %2, i64 8
  %.sroa.2.0.copyload.i15.i = load i64, ptr %.sroa.2.0..sroa_idx.i14.i, align 8, !tbaa !22, !noalias !85
  store ptr %.sroa.0.0.copyload.i13.i, ptr %17, align 8, !noalias !85
  %18 = getelementptr inbounds nuw i8, ptr %15, i64 24
  store i64 %.sroa.2.0.copyload.i15.i, ptr %18, align 8, !noalias !85
  %19 = getelementptr inbounds nuw i8, ptr %15, i64 32
  %.sroa.0.0.copyload.i18.i = load ptr, ptr %3, align 8, !tbaa !31, !noalias !85
  %.sroa.2.0..sroa_idx.i19.i = getelementptr inbounds nuw i8, ptr %3, i64 8
  %.sroa.2.0.copyload.i20.i = load i64, ptr %.sroa.2.0..sroa_idx.i19.i, align 8, !tbaa !22, !noalias !85
  store ptr %.sroa.0.0.copyload.i18.i, ptr %19, align 8, !noalias !85
  %20 = getelementptr inbounds nuw i8, ptr %15, i64 40
  store i64 %.sroa.2.0.copyload.i20.i, ptr %20, align 8, !noalias !85
  %21 = getelementptr inbounds nuw i8, ptr %15, i64 48
  %.sroa.0.0.copyload.i23.i = load ptr, ptr %4, align 8, !tbaa !31, !noalias !85
  %.sroa.2.0..sroa_idx.i24.i = getelementptr inbounds nuw i8, ptr %4, i64 8
  %.sroa.2.0.copyload.i25.i = load i64, ptr %.sroa.2.0..sroa_idx.i24.i, align 8, !tbaa !22, !noalias !85
  store ptr %.sroa.0.0.copyload.i23.i, ptr %21, align 8, !noalias !85
  %22 = getelementptr inbounds nuw i8, ptr %15, i64 56
  store i64 %.sroa.2.0.copyload.i25.i, ptr %22, align 8, !noalias !85
  %23 = getelementptr inbounds nuw i8, ptr %15, i64 64
  %.sroa.0.0.copyload.i28.i = load ptr, ptr %5, align 8, !tbaa !31, !noalias !85
  %.sroa.2.0..sroa_idx.i29.i = getelementptr inbounds nuw i8, ptr %5, i64 8
  %.sroa.2.0.copyload.i30.i = load i64, ptr %.sroa.2.0..sroa_idx.i29.i, align 8, !tbaa !22, !noalias !85
  store ptr %.sroa.0.0.copyload.i28.i, ptr %23, align 8, !noalias !85
  %24 = getelementptr inbounds nuw i8, ptr %15, i64 72
  store i64 %.sroa.2.0.copyload.i30.i, ptr %24, align 8, !noalias !85
  %25 = getelementptr inbounds nuw i8, ptr %15, i64 80
  %.sroa.0.0.copyload.i33.i = load ptr, ptr %6, align 8, !tbaa !31, !noalias !85
  %.sroa.2.0..sroa_idx.i34.i = getelementptr inbounds nuw i8, ptr %6, i64 8
  %.sroa.2.0.copyload.i35.i = load i64, ptr %.sroa.2.0..sroa_idx.i34.i, align 8, !tbaa !22, !noalias !85
  store ptr %.sroa.0.0.copyload.i33.i, ptr %25, align 8, !noalias !85
  %26 = getelementptr inbounds nuw i8, ptr %15, i64 88
  store i64 %.sroa.2.0.copyload.i35.i, ptr %26, align 8, !noalias !85
  %27 = getelementptr inbounds nuw i8, ptr %15, i64 96
  %.sroa.0.0.copyload.i38.i = load ptr, ptr %7, align 8, !tbaa !31, !noalias !85
  %.sroa.2.0..sroa_idx.i39.i = getelementptr inbounds nuw i8, ptr %7, i64 8
  %.sroa.2.0.copyload.i40.i = load i64, ptr %.sroa.2.0..sroa_idx.i39.i, align 8, !tbaa !22, !noalias !85
  store ptr %.sroa.0.0.copyload.i38.i, ptr %27, align 8, !noalias !85
  %28 = getelementptr inbounds nuw i8, ptr %15, i64 104
  store i64 %.sroa.2.0.copyload.i40.i, ptr %28, align 8, !noalias !85
  %29 = getelementptr inbounds nuw i8, ptr %15, i64 112
  %.sroa.0.0.copyload.i43.i = load ptr, ptr %8, align 8, !tbaa !31, !noalias !85
  %.sroa.2.0..sroa_idx.i44.i = getelementptr inbounds nuw i8, ptr %8, i64 8
  %.sroa.2.0.copyload.i45.i = load i64, ptr %.sroa.2.0..sroa_idx.i44.i, align 8, !tbaa !22, !noalias !85
  store ptr %.sroa.0.0.copyload.i43.i, ptr %29, align 8, !noalias !85
  %30 = getelementptr inbounds nuw i8, ptr %15, i64 120
  store i64 %.sroa.2.0.copyload.i45.i, ptr %30, align 8, !noalias !85
  %31 = getelementptr inbounds nuw i8, ptr %15, i64 128
  %.sroa.0.0.copyload.i48.i = load ptr, ptr %9, align 8, !tbaa !31, !noalias !85
  %.sroa.2.0..sroa_idx.i49.i = getelementptr inbounds nuw i8, ptr %9, i64 8
  %.sroa.2.0.copyload.i50.i = load i64, ptr %.sroa.2.0..sroa_idx.i49.i, align 8, !tbaa !22, !noalias !85
  store ptr %.sroa.0.0.copyload.i48.i, ptr %31, align 8, !noalias !85
  %32 = getelementptr inbounds nuw i8, ptr %15, i64 136
  store i64 %.sroa.2.0.copyload.i50.i, ptr %32, align 8, !noalias !85
  %33 = getelementptr inbounds nuw i8, ptr %15, i64 144
  %.sroa.0.0.copyload.i53.i = load ptr, ptr %10, align 8, !tbaa !31, !noalias !85
  %.sroa.2.0..sroa_idx.i54.i = getelementptr inbounds nuw i8, ptr %10, i64 8
  %.sroa.2.0.copyload.i55.i = load i64, ptr %.sroa.2.0..sroa_idx.i54.i, align 8, !tbaa !22, !noalias !85
  store ptr %.sroa.0.0.copyload.i53.i, ptr %33, align 8, !noalias !85
  %34 = getelementptr inbounds nuw i8, ptr %15, i64 152
  store i64 %.sroa.2.0.copyload.i55.i, ptr %34, align 8, !noalias !85
  %35 = getelementptr inbounds nuw i8, ptr %15, i64 160
  %.sroa.0.0.copyload.i58.i = load ptr, ptr %11, align 8, !tbaa !31, !noalias !85
  %.sroa.2.0..sroa_idx.i59.i = getelementptr inbounds nuw i8, ptr %11, i64 8
  %.sroa.2.0.copyload.i60.i = load i64, ptr %.sroa.2.0..sroa_idx.i59.i, align 8, !tbaa !22, !noalias !85
  store ptr %.sroa.0.0.copyload.i58.i, ptr %35, align 8, !noalias !85
  %36 = getelementptr inbounds nuw i8, ptr %15, i64 168
  store i64 %.sroa.2.0.copyload.i60.i, ptr %36, align 8, !noalias !85
  %37 = getelementptr inbounds nuw i8, ptr %15, i64 176
  %.sroa.0.0.copyload.i63.i = load ptr, ptr %12, align 8, !tbaa !31, !noalias !85
  %.sroa.2.0..sroa_idx.i64.i = getelementptr inbounds nuw i8, ptr %12, i64 8
  %.sroa.2.0.copyload.i65.i = load i64, ptr %.sroa.2.0..sroa_idx.i64.i, align 8, !tbaa !22, !noalias !85
  store ptr %.sroa.0.0.copyload.i63.i, ptr %37, align 8, !noalias !85
  %38 = getelementptr inbounds nuw i8, ptr %15, i64 184
  store i64 %.sroa.2.0.copyload.i65.i, ptr %38, align 8, !noalias !85
  %39 = getelementptr inbounds nuw i8, ptr %15, i64 192
  %.sroa.0.0.copyload.i68.i = load ptr, ptr %13, align 8, !tbaa !31, !noalias !85
  %.sroa.2.0..sroa_idx.i69.i = getelementptr inbounds nuw i8, ptr %13, i64 8
  %.sroa.2.0.copyload.i70.i = load i64, ptr %.sroa.2.0..sroa_idx.i69.i, align 8, !tbaa !22, !noalias !85
  store ptr %.sroa.0.0.copyload.i68.i, ptr %39, align 8, !noalias !85
  %40 = getelementptr inbounds nuw i8, ptr %15, i64 200
  store i64 %.sroa.2.0.copyload.i70.i, ptr %40, align 8, !noalias !85
  call void @_ZN4absl7debian216strings_internal9CatPiecesB5cxx11ESt16initializer_listINS0_11string_viewEE(ptr dead_on_unwind writable sret(%"class.std::__cxx11::basic_string") align 8 %0, ptr nonnull %15, i64 13)
  call void @llvm.lifetime.end.p0(i64 208, ptr nonnull %15) #19, !noalias !85
  ret void
}